target datalayout = "e-m:e-p270:32:32-p271:32:32-p272:64:64-i64:64-i128:128-f80:128-n8:16:32:64-S128"
target triple = "x86_64-pc-linux-gnu"

%struct.AVRational = type { i32, i32 }
%struct.AVFormatContext = type { ptr, ptr, ptr, ptr, ptr, i32, i32, ptr, i32, ptr, i32, ptr, ptr, i64, i64, i64, i32, i32, i32, i64, i64, ptr, i32, i32, ptr, i32, i32, i32, i32, ptr, i64, i32, i32, %struct.AVIOInterruptCB, i32, i32, i32, i32, i64, i32, i32, i32, i32, i32, i32, i32, i32, i32, i32, i32, i32, i64, i32, i32, i32, i32, i32, ptr, ptr, ptr, ptr, i32, ptr, ptr, ptr, ptr, i32, ptr, ptr, i64, ptr, ptr, ptr, i64 }
%struct.AVIOInterruptCB = type { ptr, ptr }
%struct.FormatContextInternal = type { %struct.FFFormatContext, %union.anon }
%struct.FFFormatContext = type { %struct.AVFormatContext, i32, %struct.PacketList, i64, ptr, ptr, i32, ptr, i32 }
%struct.PacketList = type { ptr, ptr }
%union.anon = type { %struct.anon.1 }
%struct.anon.1 = type { %struct.PacketList, i32, %struct.PacketList, i32, i32 }
%struct.AVChapter = type { i64, %struct.AVRational, i64, i64, ptr }

@.str = private unnamed_addr constant [39 x i8] c"Chapter end time %ld before start %ld\0A\00", align 1
@.str.1 = private unnamed_addr constant [6 x i8] c"title\00", align 1

; Function Attrs: alwaysinline nounwind uwtable
define internal ptr @ff_fc_internal(ptr noundef %0) #1 {
  %2 = alloca ptr, align 8
  store ptr %0, ptr %2, align 8, !tbaa !35
  %3 = load ptr, ptr %2, align 8, !tbaa !35
  ret ptr %3
}

; Function Attrs: nounwind uwtable
define ptr @avpriv_new_chapter(ptr noundef %0, i64 noundef %1, i64 %2, i64 noundef %3, i64 noundef %4, ptr noundef %5) #0 {
  %7 = alloca ptr, align 8
  %8 = alloca %struct.AVRational, align 4
  %9 = alloca ptr, align 8
  %10 = alloca i64, align 8
  %11 = alloca i64, align 8
  %12 = alloca i64, align 8
  %13 = alloca ptr, align 8
  %14 = alloca ptr, align 8
  %15 = alloca ptr, align 8
  %16 = alloca i32, align 4
  %17 = alloca i32, align 4
  %18 = alloca i32, align 4
  store i64 %2, ptr %8, align 4
  store ptr %0, ptr %9, align 8, !tbaa !35
  store i64 %1, ptr %10, align 8, !tbaa !36
  store i64 %3, ptr %11, align 8, !tbaa !36
  store i64 %4, ptr %12, align 8, !tbaa !36
  store ptr %5, ptr %13, align 8, !tbaa !37
  call void @llvm.lifetime.start.p0(i64 8, ptr %14) #6
  %19 = load ptr, ptr %9, align 8, !tbaa !35
  %20 = call ptr @ff_fc_internal(ptr noundef %19)
  store ptr %20, ptr %14, align 8, !tbaa !38
  call void @llvm.lifetime.start.p0(i64 8, ptr %15) #6
  store ptr null, ptr %15, align 8, !tbaa !40
  call void @llvm.lifetime.start.p0(i64 4, ptr %16) #6
  %21 = load i64, ptr %12, align 8, !tbaa !36
  %22 = icmp ne i64 %21, -9223372036854775808
  br i1 %22, label %23, label %31

23:                                               ; preds = %6
  %24 = load i64, ptr %11, align 8, !tbaa !36
  %25 = load i64, ptr %12, align 8, !tbaa !36
  %26 = icmp sgt i64 %24, %25
  br i1 %26, label %27, label %31

27:                                               ; preds = %23
  %28 = load ptr, ptr %9, align 8, !tbaa !35
  %29 = load i64, ptr %12, align 8, !tbaa !36
  %30 = load i64, ptr %11, align 8, !tbaa !36
  call void (ptr, i32, ptr, ...) @av_log(ptr noundef %28, i32 noundef 16, ptr noundef @.str, i64 noundef %29, i64 noundef %30)
  store ptr null, ptr %7, align 8
  store i32 1, ptr %17, align 4
  br label %139

31:                                               ; preds = %23, %6
  %32 = load ptr, ptr %9, align 8, !tbaa !35
  %33 = getelementptr inbounds nuw %struct.AVFormatContext, ptr %32, i32 0, i32 10
  %34 = load i32, ptr %33, align 8, !tbaa !42
  %35 = icmp ne i32 %34, 0
  br i1 %35, label %40, label %36

36:                                               ; preds = %31
  %37 = load ptr, ptr %14, align 8, !tbaa !38
  %38 = getelementptr inbounds nuw %struct.FormatContextInternal, ptr %37, i32 0, i32 1
  %39 = getelementptr inbounds nuw %struct.anon.1, ptr %38, i32 0, i32 4
  store i32 1, ptr %39, align 4, !tbaa !54
  br label %102

40:                                               ; preds = %31
  %41 = load ptr, ptr %14, align 8, !tbaa !38
  %42 = getelementptr inbounds nuw %struct.FormatContextInternal, ptr %41, i32 0, i32 1
  %43 = getelementptr inbounds nuw %struct.anon.1, ptr %42, i32 0, i32 4
  %44 = load i32, ptr %43, align 4, !tbaa !54
  %45 = icmp ne i32 %44, 0
  br i1 %45, label %46, label %61

46:                                               ; preds = %40
  %47 = load ptr, ptr %9, align 8, !tbaa !35
  %48 = getelementptr inbounds nuw %struct.AVFormatContext, ptr %47, i32 0, i32 11
  %49 = load ptr, ptr %48, align 8, !tbaa !55
  %50 = load ptr, ptr %9, align 8, !tbaa !35
  %51 = getelementptr inbounds nuw %struct.AVFormatContext, ptr %50, i32 0, i32 10
  %52 = load i32, ptr %51, align 8, !tbaa !42
  %53 = sub i32 %52, 1
  %54 = zext i32 %53 to i64
  %55 = getelementptr inbounds nuw ptr, ptr %49, i64 %54
  %56 = load ptr, ptr %55, align 8, !tbaa !40
  %57 = getelementptr inbounds nuw %struct.AVChapter, ptr %56, i32 0, i32 0
  %58 = load i64, ptr %57, align 8, !tbaa !56
  %59 = load i64, ptr %10, align 8, !tbaa !36
  %60 = icmp sge i64 %58, %59
  br i1 %60, label %61, label %101

61:                                               ; preds = %46, %40
  call void @llvm.lifetime.start.p0(i64 4, ptr %18) #6
  store i32 0, ptr %18, align 4, !tbaa !33
  br label %62

62:                                               ; preds = %90, %61
  %63 = load i32, ptr %18, align 4, !tbaa !33
  %64 = load ptr, ptr %9, align 8, !tbaa !35
  %65 = getelementptr inbounds nuw %struct.AVFormatContext, ptr %64, i32 0, i32 10
  %66 = load i32, ptr %65, align 8, !tbaa !42
  %67 = icmp ult i32 %63, %66
  br i1 %67, label %69, label %68

68:                                               ; preds = %62
  store i32 2, ptr %17, align 4
  call void @llvm.lifetime.end.p0(i64 4, ptr %18) #6
  br label %93

69:                                               ; preds = %62
  %70 = load ptr, ptr %9, align 8, !tbaa !35
  %71 = getelementptr inbounds nuw %struct.AVFormatContext, ptr %70, i32 0, i32 11
  %72 = load ptr, ptr %71, align 8, !tbaa !55
  %73 = load i32, ptr %18, align 4, !tbaa !33
  %74 = zext i32 %73 to i64
  %75 = getelementptr inbounds nuw ptr, ptr %72, i64 %74
  %76 = load ptr, ptr %75, align 8, !tbaa !40
  %77 = getelementptr inbounds nuw %struct.AVChapter, ptr %76, i32 0, i32 0
  %78 = load i64, ptr %77, align 8, !tbaa !56
  %79 = load i64, ptr %10, align 8, !tbaa !36
  %80 = icmp eq i64 %78, %79
  br i1 %80, label %81, label %89

81:                                               ; preds = %69
  %82 = load ptr, ptr %9, align 8, !tbaa !35
  %83 = getelementptr inbounds nuw %struct.AVFormatContext, ptr %82, i32 0, i32 11
  %84 = load ptr, ptr %83, align 8, !tbaa !55
  %85 = load i32, ptr %18, align 4, !tbaa !33
  %86 = zext i32 %85 to i64
  %87 = getelementptr inbounds nuw ptr, ptr %84, i64 %86
  %88 = load ptr, ptr %87, align 8, !tbaa !40
  store ptr %88, ptr %15, align 8, !tbaa !40
  br label %89

89:                                               ; preds = %81, %69
  br label %90

90:                                               ; preds = %89
  %91 = load i32, ptr %18, align 4, !tbaa !33
  %92 = add i32 %91, 1
  store i32 %92, ptr %18, align 4, !tbaa !33
  br label %62, !llvm.loop !58

93:                                               ; preds = %68
  %94 = load ptr, ptr %15, align 8, !tbaa !40
  %95 = icmp ne ptr %94, null
  br i1 %95, label %100, label %96

96:                                               ; preds = %93
  %97 = load ptr, ptr %14, align 8, !tbaa !38
  %98 = getelementptr inbounds nuw %struct.FormatContextInternal, ptr %97, i32 0, i32 1
  %99 = getelementptr inbounds nuw %struct.anon.1, ptr %98, i32 0, i32 4
  store i32 0, ptr %99, align 4, !tbaa !54
  br label %100

100:                                              ; preds = %96, %93
  br label %101

101:                                              ; preds = %100, %46
  br label %102

102:                                              ; preds = %101, %36
  %103 = load ptr, ptr %15, align 8, !tbaa !40
  %104 = icmp ne ptr %103, null
  br i1 %104, label %122, label %105

105:                                              ; preds = %102
  %106 = call noalias ptr @av_mallocz(i64 noundef 40)
  store ptr %106, ptr %15, align 8, !tbaa !40
  %107 = load ptr, ptr %15, align 8, !tbaa !40
  %108 = icmp ne ptr %107, null
  br i1 %108, label %110, label %109

109:                                              ; preds = %105
  store ptr null, ptr %7, align 8
  store i32 1, ptr %17, align 4
  br label %139

110:                                              ; preds = %105
  %111 = load ptr, ptr %9, align 8, !tbaa !35
  %112 = getelementptr inbounds nuw %struct.AVFormatContext, ptr %111, i32 0, i32 11
  %113 = load ptr, ptr %9, align 8, !tbaa !35
  %114 = getelementptr inbounds nuw %struct.AVFormatContext, ptr %113, i32 0, i32 10
  %115 = load ptr, ptr %15, align 8, !tbaa !40
  %116 = call i32 @av_dynarray_add_nofree(ptr noundef %112, ptr noundef %114, ptr noundef %115)
  store i32 %116, ptr %16, align 4, !tbaa !33
  %117 = load i32, ptr %16, align 4, !tbaa !33
  %118 = icmp slt i32 %117, 0
  br i1 %118, label %119, label %121

119:                                              ; preds = %110
  %120 = load ptr, ptr %15, align 8, !tbaa !40
  call void @av_free(ptr noundef %120)
  store ptr null, ptr %7, align 8
  store i32 1, ptr %17, align 4
  br label %139

121:                                              ; preds = %110
  br label %122

122:                                              ; preds = %121, %102
  %123 = load ptr, ptr %15, align 8, !tbaa !40
  %124 = getelementptr inbounds nuw %struct.AVChapter, ptr %123, i32 0, i32 4
  %125 = load ptr, ptr %13, align 8, !tbaa !37
  %126 = call i32 @av_dict_set(ptr noundef %124, ptr noundef @.str.1, ptr noundef %125, i32 noundef 0)
  %127 = load i64, ptr %10, align 8, !tbaa !36
  %128 = load ptr, ptr %15, align 8, !tbaa !40
  %129 = getelementptr inbounds nuw %struct.AVChapter, ptr %128, i32 0, i32 0
  store i64 %127, ptr %129, align 8, !tbaa !56
  %130 = load ptr, ptr %15, align 8, !tbaa !40
  %131 = getelementptr inbounds nuw %struct.AVChapter, ptr %130, i32 0, i32 1
  call void @llvm.memcpy.p0.p0.i64(ptr align 8 %131, ptr align 4 %8, i64 8, i1 false), !tbaa.struct !60
  %132 = load i64, ptr %11, align 8, !tbaa !36
  %133 = load ptr, ptr %15, align 8, !tbaa !40
  %134 = getelementptr inbounds nuw %struct.AVChapter, ptr %133, i32 0, i32 2
  store i64 %132, ptr %134, align 8, !tbaa !61
  %135 = load i64, ptr %12, align 8, !tbaa !36
  %136 = load ptr, ptr %15, align 8, !tbaa !40
  %137 = getelementptr inbounds nuw %struct.AVChapter, ptr %136, i32 0, i32 3
  store i64 %135, ptr %137, align 8, !tbaa !62
  %138 = load ptr, ptr %15, align 8, !tbaa !40
  store ptr %138, ptr %7, align 8
  store i32 1, ptr %17, align 4
  br label %139

139:                                              ; preds = %122, %119, %109, %27
  call void @llvm.lifetime.end.p0(i64 4, ptr %16) #6
  call void @llvm.lifetime.end.p0(i64 8, ptr %15) #6
  call void @llvm.lifetime.end.p0(i64 8, ptr %14) #6
  %140 = load ptr, ptr %7, align 8
  ret ptr %140
}