; Function Attrs: nounwind uwtable
define ptr @avpriv_new_chapter(ptr noundef %0, i64 noundef %1, i64 %2, i64 noundef %3, i64 noundef %4, ptr noundef %5) local_unnamed_addr #2 {
  %.not = icmp ne i64 %4, -9223372036854775808
  %7 = icmp sgt i64 %3, %4
  %or.cond = and i1 %.not, %7
  br i1 %or.cond, label %8, label %9

8:                                                ; preds = %6
  tail call void (ptr, i32, ptr, ...) @av_log(ptr noundef %0, i32 noundef 16, ptr noundef nonnull @.str, i64 noundef %4, i64 noundef %3) #6
  br label %40

9:                                                ; preds = %6
  %10 = getelementptr inbounds nuw i8, ptr %0, i64 72
  %11 = load i32, ptr %10, align 8, !tbaa !32
  %.not46 = icmp eq i32 %11, 0
  %12 = getelementptr inbounds nuw i8, ptr %0, i64 588
  br i1 %.not46, label %.sink.split, label %13

13:                                               ; preds = %9
  %14 = load i32, ptr %12, align 4, !tbaa !44
  %.not47 = icmp eq i32 %14, 0
  %.phi.trans.insert = getelementptr inbounds nuw i8, ptr %0, i64 80
  %.pre = load ptr, ptr %.phi.trans.insert, align 8, !tbaa !45
  br i1 %.not47, label %._crit_edge, label %15

15:                                               ; preds = %13
  %16 = add i32 %11, -1
  %17 = zext i32 %16 to i64
  %18 = getelementptr inbounds nuw ptr, ptr %.pre, i64 %17
  %19 = load ptr, ptr %18, align 8, !tbaa !46
  %20 = load i64, ptr %19, align 8, !tbaa !48
  %.not48 = icmp slt i64 %20, %1
  br i1 %.not48, label %27, label %._crit_edge

._crit_edge:                                      ; preds = %13, %15
  %wide.trip.count = zext i32 %11 to i64
  br label %22

21:                                               ; preds = %22
  %.not49 = icmp eq ptr %spec.select, null
  br i1 %.not49, label %.sink.split, label %34

22:                                               ; preds = %._crit_edge, %22
  %indvars.iv = phi i64 [ 0, %._crit_edge ], [ %indvars.iv.next, %22 ]
  %.154 = phi ptr [ null, %._crit_edge ], [ %spec.select, %22 ]
  %23 = getelementptr inbounds nuw ptr, ptr %.pre, i64 %indvars.iv
  %24 = load ptr, ptr %23, align 8, !tbaa !46
  %25 = load i64, ptr %24, align 8, !tbaa !48
  %26 = icmp eq i64 %25, %1
  %spec.select = select i1 %26, ptr %24, ptr %.154
  %indvars.iv.next = add nuw nsw i64 %indvars.iv, 1
  %exitcond.not = icmp eq i64 %indvars.iv.next, %wide.trip.count
  br i1 %exitcond.not, label %21, label %22, !llvm.loop !50

.sink.split:                                      ; preds = %21, %9
  %.sink = phi i32 [ 1, %9 ], [ 0, %21 ]
  store i32 %.sink, ptr %12, align 4, !tbaa !44
  br label %27

27:                                               ; preds = %.sink.split, %15
  %28 = tail call noalias ptr @av_mallocz(i64 noundef 40) #6
  %.not51 = icmp eq ptr %28, null
  br i1 %.not51, label %40, label %29

29:                                               ; preds = %27
  %30 = getelementptr inbounds nuw i8, ptr %0, i64 80
  %31 = tail call i32 @av_dynarray_add_nofree(ptr noundef nonnull %30, ptr noundef nonnull %10, ptr noundef nonnull %28) #6
  %32 = icmp slt i32 %31, 0
  br i1 %32, label %33, label %34

33:                                               ; preds = %29
  tail call void @av_free(ptr noundef nonnull %28) #6
  br label %40

34:                                               ; preds = %21, %29
  %.3 = phi ptr [ %28, %29 ], [ %spec.select, %21 ]
  %35 = getelementptr inbounds nuw i8, ptr %.3, i64 32
  %36 = tail call i32 @av_dict_set(ptr noundef nonnull %35, ptr noundef nonnull @.str.1, ptr noundef %5, i32 noundef 0) #6
  store i64 %1, ptr %.3, align 8, !tbaa !48
  %37 = getelementptr inbounds nuw i8, ptr %.3, i64 8
  store i64 %2, ptr %37, align 8
  %38 = getelementptr inbounds nuw i8, ptr %.3, i64 16
  store i64 %3, ptr %38, align 8, !tbaa !52
  %39 = getelementptr inbounds nuw i8, ptr %.3, i64 24
  store i64 %4, ptr %39, align 8, !tbaa !53
  br label %40

40:                                               ; preds = %27, %34, %33, %8
  %.040 = phi ptr [ null, %8 ], [ %.3, %34 ], [ null, %33 ], [ null, %27 ]
  ret ptr %.040
}